target datalayout = "e-m:e-p270:32:32-p271:32:32-p272:64:64-i64:64-i128:128-f80:128-n8:16:32:64-S128"
target triple = "x86_64-unknown-linux-gnu"

%"class.icu_75::MessageFormat::PluralSelectorProvider" = type <{ %"class.icu_75::PluralFormat::PluralSelector", ptr, ptr, i32, [4 x i8] }>
%"class.icu_75::PluralFormat::PluralSelector" = type { ptr }

@_ZTVN6icu_7512PluralFormat14PluralSelectorE = external unnamed_addr constant { [5 x ptr] }, align 8

; Function Attrs: mustprogress nounwind uwtable
define linkonce_odr void @_ZN6icu_7512PluralFormat14PluralSelectorC2Ev(ptr noundef nonnull align 8 dereferenceable(8) %this) unnamed_addr #0 comdat align 2 {
entry:
  %this.addr = alloca ptr, align 8
  store ptr %this, ptr %this.addr, align 8
  %this1 = load ptr, ptr %this.addr, align 8
  store ptr getelementptr inbounds ({ [5 x ptr] }, ptr @_ZTVN6icu_7512PluralFormat14PluralSelectorE, i32 0, i32 0, i32 2), ptr %this1, align 8
  ret void
}

; Function Attrs: mustprogress nounwind uwtable
define void @_ZN6icu_7513MessageFormat22PluralSelectorProviderC2ERKS0_11UPluralType(ptr noundef nonnull align 8 dereferenceable(28) %this, ptr noundef nonnull align 8 dereferenceable(816) %mf, i32 noundef %t) unnamed_addr #0 align 2 {
entry:
  %this.addr = alloca ptr, align 8
  %mf.addr = alloca ptr, align 8
  %t.addr = alloca i32, align 4
  store ptr %this, ptr %this.addr, align 8
  store ptr %mf, ptr %mf.addr, align 8
  store i32 %t, ptr %t.addr, align 4
  %this1 = load ptr, ptr %this.addr, align 8
  call void @_ZN6icu_7512PluralFormat14PluralSelectorC2Ev(ptr noundef nonnull align 8 dereferenceable(8) %this1) #11
  store ptr getelementptr inbounds ({ [5 x ptr] }, ptr @_ZTVN6icu_7513MessageFormat22PluralSelectorProviderE, i32 0, i32 0, i32 2), ptr %this1, align 8
  %msgFormat = getelementptr inbounds %"class.icu_75::MessageFormat::PluralSelectorProvider", ptr %this1, i32 0, i32 1
  %0 = load ptr, ptr %mf.addr, align 8
  store ptr %0, ptr %msgFormat, align 8
  %rules = getelementptr inbounds %"class.icu_75::MessageFormat::PluralSelectorProvider", ptr %this1, i32 0, i32 2
  store ptr null, ptr %rules, align 8
  %type = getelementptr inbounds %"class.icu_75::MessageFormat::PluralSelectorProvider", ptr %this1, i32 0, i32 3
  %1 = load i32, ptr %t.addr, align 4
  store i32 %1, ptr %type, align 8
  ret void
}