; Function Attrs: mustprogress nofree norecurse nosync nounwind willreturn memory(argmem: write) uwtable
define void @_ZN6icu_7513MessageFormat22PluralSelectorProviderC2ERKS0_11UPluralType(ptr nocapture noundef nonnull writeonly align 8 dereferenceable(28) %this, ptr noundef nonnull align 8 dereferenceable(816) %mf, i32 noundef %t) unnamed_addr #15 align 2 {
entry:
  store ptr getelementptr inbounds ({ [5 x ptr] }, ptr @_ZTVN6icu_7513MessageFormat22PluralSelectorProviderE, i64 0, i32 0, i64 2), ptr %this, align 8
  %msgFormat = getelementptr inbounds i8, ptr %this, i64 8
  store ptr %mf, ptr %msgFormat, align 8
  %rules = getelementptr inbounds i8, ptr %this, i64 16
  store ptr null, ptr %rules, align 8
  %type = getelementptr inbounds i8, ptr %this, i64 24
  store i32 %t, ptr %type, align 8
  ret void
}